target datalayout = "e-m:e-p270:32:32-p271:32:32-p272:64:64-i64:64-i128:128-f80:128-n8:16:32:64-S128"
target triple = "x86_64-pc-linux-gnu"

%struct.ossl_cmp_ctx_st = type { ptr, ptr, ptr, i32, ptr, ptr, ptr, ptr, ptr, i32, ptr, ptr, i32, i32, i32, i32, i64, ptr, ptr, i32, i32, ptr, ptr, ptr, ptr, ptr, i32, i32, i32, ptr, ptr, ptr, ptr, ptr, i64, ptr, i32, i32, ptr, ptr, ptr, ptr, ptr, ptr, ptr, ptr, i32, i32, ptr, ptr, i32, ptr, ptr, i32, ptr, ptr, i32, i32, ptr, ptr, i32, i32, ptr, ptr, i32, ptr, i32, ptr, i32, ptr, ptr, ptr, ptr, ptr, ptr }
%struct.ossl_cmp_msg_st = type { ptr, ptr, ptr, ptr, ptr, ptr }
%struct.ossl_cmp_pkiheader_st = type { ptr, ptr, ptr, ptr, ptr, ptr, ptr, ptr, ptr, ptr, ptr, ptr }
%struct.asn1_string_st = type { i32, i32, ptr, i64 }
%struct.ossl_cmp_pkibody_st = type { i32, %union.anon }
%union.anon = type { ptr }
%struct.ossl_cmp_certrepmessage_st = type { ptr, ptr }

@.str = private unnamed_addr constant [32 x i8] c"../openssl/crypto/cmp/cmp_vfy.c\00", align 1
@__func__.OSSL_CMP_validate_msg = private unnamed_addr constant [22 x i8] c"OSSL_CMP_validate_msg\00", align 1
@.str.1 = private unnamed_addr constant [6 x i8] c"DEBUG\00", align 1
@.str.2 = private unnamed_addr constant [3 x i8] c"%s\00", align 1
@.str.3 = private unnamed_addr constant [23 x i8] c"validating CMP message\00", align 1
@.str.4 = private unnamed_addr constant [5 x i8] c"INFO\00", align 1
@.str.5 = private unnamed_addr constant [67 x i8] c"no secret available for verifying PBM-based CMP message protection\00", align 1
@.str.6 = private unnamed_addr constant [56 x i8] c"successfully validated PBM-based CMP message protection\00", align 1
@.str.7 = private unnamed_addr constant [5 x i8] c"WARN\00", align 1
@.str.8 = private unnamed_addr constant [50 x i8] c"verifying PBM-based CMP message protection failed\00", align 1
@.str.9 = private unnamed_addr constant [101 x i8] c"no trust store nor pinned server cert available for verifying signature-based CMP message protection\00", align 1
@.str.10 = private unnamed_addr constant [80 x i8] c"successfully validated signature-based CMP message protection using trust store\00", align 1
@.str.11 = private unnamed_addr constant [87 x i8] c"successfully validated signature-based CMP message protection using pinned server cert\00", align 1
@.str.12 = private unnamed_addr constant [42 x i8] c"CMP message signature verification failed\00", align 1

; Function Attrs: nounwind uwtable
define i32 @OSSL_CMP_validate_msg(ptr noundef %0, ptr noundef %1) #0 {
  %3 = alloca i32, align 4
  %4 = alloca ptr, align 8
  %5 = alloca ptr, align 8
  %6 = alloca ptr, align 8
  %7 = alloca i32, align 4
  %8 = alloca ptr, align 8
  store ptr %0, ptr %4, align 8, !tbaa !3
  store ptr %1, ptr %5, align 8, !tbaa !36
  call void @llvm.lifetime.start.p0(i64 8, ptr %6) #5
  %9 = load ptr, ptr %4, align 8, !tbaa !3
  %10 = call i32 (i32, ptr, ptr, ptr, i32, ptr, ptr, ...) @ossl_cmp_print_log(i32 noundef 7, ptr noundef %9, ptr noundef @__func__.OSSL_CMP_validate_msg, ptr noundef @.str, i32 noundef 567, ptr noundef @.str.1, ptr noundef @.str.2, ptr noundef @.str.3)
  %11 = load ptr, ptr %4, align 8, !tbaa !3
  %12 = icmp eq ptr %11, null
  br i1 %12, label %26, label %13

13:                                               ; preds = %2
  %14 = load ptr, ptr %5, align 8, !tbaa !36
  %15 = icmp eq ptr %14, null
  br i1 %15, label %26, label %16

16:                                               ; preds = %13
  %17 = load ptr, ptr %5, align 8, !tbaa !36
  %18 = getelementptr inbounds nuw %struct.ossl_cmp_msg_st, ptr %17, i32 0, i32 0
  %19 = load ptr, ptr %18, align 8, !tbaa !38
  %20 = icmp eq ptr %19, null
  br i1 %20, label %26, label %21

21:                                               ; preds = %16
  %22 = load ptr, ptr %5, align 8, !tbaa !36
  %23 = getelementptr inbounds nuw %struct.ossl_cmp_msg_st, ptr %22, i32 0, i32 1
  %24 = load ptr, ptr %23, align 8, !tbaa !42
  %25 = icmp eq ptr %24, null
  br i1 %25, label %26, label %27

26:                                               ; preds = %21, %16, %13, %2
  call void @ERR_new()
  call void @ERR_set_debug(ptr noundef @.str, i32 noundef 570, ptr noundef @__func__.OSSL_CMP_validate_msg)
  call void (i32, i32, ptr, ...) @ERR_set_error(i32 noundef 58, i32 noundef 103, ptr noundef null)
  store i32 0, ptr %3, align 4
  store i32 1, ptr %7, align 4
  br label %147

27:                                               ; preds = %21
  %28 = load ptr, ptr %5, align 8, !tbaa !36
  %29 = getelementptr inbounds nuw %struct.ossl_cmp_msg_st, ptr %28, i32 0, i32 0
  %30 = load ptr, ptr %29, align 8, !tbaa !38
  %31 = getelementptr inbounds nuw %struct.ossl_cmp_pkiheader_st, ptr %30, i32 0, i32 4
  %32 = load ptr, ptr %31, align 8, !tbaa !43
  %33 = icmp eq ptr %32, null
  br i1 %33, label %46, label %34

34:                                               ; preds = %27
  %35 = load ptr, ptr %5, align 8, !tbaa !36
  %36 = getelementptr inbounds nuw %struct.ossl_cmp_msg_st, ptr %35, i32 0, i32 2
  %37 = load ptr, ptr %36, align 8, !tbaa !47
  %38 = icmp eq ptr %37, null
  br i1 %38, label %46, label %39

39:                                               ; preds = %34
  %40 = load ptr, ptr %5, align 8, !tbaa !36
  %41 = getelementptr inbounds nuw %struct.ossl_cmp_msg_st, ptr %40, i32 0, i32 2
  %42 = load ptr, ptr %41, align 8, !tbaa !47
  %43 = getelementptr inbounds nuw %struct.asn1_string_st, ptr %42, i32 0, i32 2
  %44 = load ptr, ptr %43, align 8, !tbaa !48
  %45 = icmp eq ptr %44, null
  br i1 %45, label %46, label %47

46:                                               ; preds = %39, %34, %27
  call void @ERR_new()
  call void @ERR_set_debug(ptr noundef @.str, i32 noundef 576, ptr noundef @__func__.OSSL_CMP_validate_msg)
  call void (i32, i32, ptr, ...) @ERR_set_error(i32 noundef 58, i32 noundef 143, ptr noundef null)
  store i32 0, ptr %3, align 4
  store i32 1, ptr %7, align 4
  br label %147

47:                                               ; preds = %39
  %48 = load ptr, ptr %5, align 8, !tbaa !36
  %49 = getelementptr inbounds nuw %struct.ossl_cmp_msg_st, ptr %48, i32 0, i32 0
  %50 = load ptr, ptr %49, align 8, !tbaa !38
  %51 = call i32 @ossl_cmp_hdr_get_protection_nid(ptr noundef %50)
  switch i32 %51, label %102 [
    i32 782, label %52
    i32 783, label %101
  ]

52:                                               ; preds = %47
  %53 = load ptr, ptr %4, align 8, !tbaa !3
  %54 = getelementptr inbounds nuw %struct.ossl_cmp_ctx_st, ptr %53, i32 0, i32 33
  %55 = load ptr, ptr %54, align 8, !tbaa !50
  %56 = icmp eq ptr %55, null
  br i1 %56, label %57, label %60

57:                                               ; preds = %52
  %58 = load ptr, ptr %4, align 8, !tbaa !3
  %59 = call i32 (i32, ptr, ptr, ptr, i32, ptr, ptr, ...) @ossl_cmp_print_log(i32 noundef 6, ptr noundef %58, ptr noundef @__func__.OSSL_CMP_validate_msg, ptr noundef @.str, i32 noundef 584, ptr noundef @.str.4, ptr noundef @.str.2, ptr noundef @.str.5)
  call void @ERR_new()
  call void @ERR_set_debug(ptr noundef @.str, i32 noundef 585, ptr noundef @__func__.OSSL_CMP_validate_msg)
  call void (i32, i32, ptr, ...) @ERR_set_error(i32 noundef 58, i32 noundef 178, ptr noundef null)
  store i32 0, ptr %3, align 4
  store i32 1, ptr %7, align 4
  br label %147

60:                                               ; preds = %52
  %61 = load ptr, ptr %4, align 8, !tbaa !3
  %62 = load ptr, ptr %5, align 8, !tbaa !36
  %63 = call i32 @verify_PBMAC(ptr noundef %61, ptr noundef %62)
  %64 = icmp ne i32 %63, 0
  br i1 %64, label %65, label %98

65:                                               ; preds = %60
  %66 = load ptr, ptr %5, align 8, !tbaa !36
  %67 = call i32 @OSSL_CMP_MSG_get_bodytype(ptr noundef %66)
  switch i32 %67, label %94 [
    i32 -1, label %68
    i32 1, label %69
    i32 3, label %69
    i32 8, label %69
    i32 14, label %69
  ]

68:                                               ; preds = %65
  store i32 0, ptr %3, align 4
  store i32 1, ptr %7, align 4
  br label %147

69:                                               ; preds = %65, %65, %65, %65
  %70 = load ptr, ptr %4, align 8, !tbaa !3
  %71 = getelementptr inbounds nuw %struct.ossl_cmp_ctx_st, ptr %70, i32 0, i32 24
  %72 = load ptr, ptr %71, align 8, !tbaa !51
  %73 = icmp ne ptr %72, null
  br i1 %73, label %74, label %93

74:                                               ; preds = %69
  call void @llvm.lifetime.start.p0(i64 8, ptr %8) #5
  %75 = load ptr, ptr %5, align 8, !tbaa !36
  %76 = getelementptr inbounds nuw %struct.ossl_cmp_msg_st, ptr %75, i32 0, i32 1
  %77 = load ptr, ptr %76, align 8, !tbaa !42
  %78 = getelementptr inbounds nuw %struct.ossl_cmp_pkibody_st, ptr %77, i32 0, i32 1
  %79 = load ptr, ptr %78, align 8, !tbaa !52
  %80 = getelementptr inbounds nuw %struct.ossl_cmp_certrepmessage_st, ptr %79, i32 0, i32 0
  %81 = load ptr, ptr %80, align 8, !tbaa !53
  store ptr %81, ptr %8, align 8, !tbaa !56
  %82 = load ptr, ptr %4, align 8, !tbaa !3
  %83 = getelementptr inbounds nuw %struct.ossl_cmp_ctx_st, ptr %82, i32 0, i32 24
  %84 = load ptr, ptr %83, align 8, !tbaa !51
  %85 = load ptr, ptr %8, align 8, !tbaa !56
  %86 = call i32 @ossl_cmp_X509_STORE_add1_certs(ptr noundef %84, ptr noundef %85, i32 noundef 0)
  %87 = icmp ne i32 %86, 0
  br i1 %87, label %89, label %88

88:                                               ; preds = %74
  store i32 0, ptr %3, align 4
  store i32 1, ptr %7, align 4
  br label %90

89:                                               ; preds = %74
  store i32 0, ptr %7, align 4
  br label %90

90:                                               ; preds = %89, %88
  call void @llvm.lifetime.end.p0(i64 8, ptr %8) #5
  %91 = load i32, ptr %7, align 4
  switch i32 %91, label %147 [
    i32 0, label %92
  ]

92:                                               ; preds = %90
  br label %93

93:                                               ; preds = %92, %69
  br label %95

94:                                               ; preds = %65
  br label %95

95:                                               ; preds = %94, %93
  %96 = load ptr, ptr %4, align 8, !tbaa !3
  %97 = call i32 (i32, ptr, ptr, ptr, i32, ptr, ptr, ...) @ossl_cmp_print_log(i32 noundef 7, ptr noundef %96, ptr noundef @__func__.OSSL_CMP_validate_msg, ptr noundef @.str, i32 noundef 615, ptr noundef @.str.1, ptr noundef @.str.2, ptr noundef @.str.6)
  store i32 1, ptr %3, align 4
  store i32 1, ptr %7, align 4
  br label %147

98:                                               ; preds = %60
  %99 = load ptr, ptr %4, align 8, !tbaa !3
  %100 = call i32 (i32, ptr, ptr, ptr, i32, ptr, ptr, ...) @ossl_cmp_print_log(i32 noundef 4, ptr noundef %99, ptr noundef @__func__.OSSL_CMP_validate_msg, ptr noundef @.str, i32 noundef 618, ptr noundef @.str.7, ptr noundef @.str.2, ptr noundef @.str.8)
  br label %146

101:                                              ; preds = %47
  call void @ERR_new()
  call void @ERR_set_debug(ptr noundef @.str, i32 noundef 626, ptr noundef @__func__.OSSL_CMP_validate_msg)
  call void (i32, i32, ptr, ...) @ERR_set_error(i32 noundef 58, i32 noundef 154, ptr noundef null)
  br label %146

102:                                              ; preds = %47
  %103 = load ptr, ptr %4, align 8, !tbaa !3
  %104 = getelementptr inbounds nuw %struct.ossl_cmp_ctx_st, ptr %103, i32 0, i32 21
  %105 = load ptr, ptr %104, align 8, !tbaa !57
  store ptr %105, ptr %6, align 8, !tbaa !10
  %106 = load ptr, ptr %6, align 8, !tbaa !10
  %107 = icmp eq ptr %106, null
  br i1 %107, label %108, label %130

108:                                              ; preds = %102
  %109 = load ptr, ptr %4, align 8, !tbaa !3
  %110 = getelementptr inbounds nuw %struct.ossl_cmp_ctx_st, ptr %109, i32 0, i32 24
  %111 = load ptr, ptr %110, align 8, !tbaa !51
  %112 = icmp eq ptr %111, null
  br i1 %112, label %113, label %121

113:                                              ; preds = %108
  %114 = load ptr, ptr %4, align 8, !tbaa !3
  %115 = getelementptr inbounds nuw %struct.ossl_cmp_ctx_st, ptr %114, i32 0, i32 33
  %116 = load ptr, ptr %115, align 8, !tbaa !50
  %117 = icmp ne ptr %116, null
  br i1 %117, label %118, label %121

118:                                              ; preds = %113
  %119 = load ptr, ptr %4, align 8, !tbaa !3
  %120 = call i32 (i32, ptr, ptr, ptr, i32, ptr, ptr, ...) @ossl_cmp_print_log(i32 noundef 6, ptr noundef %119, ptr noundef @__func__.OSSL_CMP_validate_msg, ptr noundef @.str, i32 noundef 636, ptr noundef @.str.4, ptr noundef @.str.2, ptr noundef @.str.9)
  call void @ERR_new()
  call void @ERR_set_debug(ptr noundef @.str, i32 noundef 637, ptr noundef @__func__.OSSL_CMP_validate_msg)
  call void (i32, i32, ptr, ...) @ERR_set_error(i32 noundef 58, i32 noundef 179, ptr noundef null)
  store i32 0, ptr %3, align 4
  store i32 1, ptr %7, align 4
  br label %147

121:                                              ; preds = %113, %108
  %122 = load ptr, ptr %4, align 8, !tbaa !3
  %123 = load ptr, ptr %5, align 8, !tbaa !36
  %124 = call i32 @check_msg_find_cert(ptr noundef %122, ptr noundef %123)
  %125 = icmp ne i32 %124, 0
  br i1 %125, label %126, label %129

126:                                              ; preds = %121
  %127 = load ptr, ptr %4, align 8, !tbaa !3
  %128 = call i32 (i32, ptr, ptr, ptr, i32, ptr, ptr, ...) @ossl_cmp_print_log(i32 noundef 7, ptr noundef %127, ptr noundef @__func__.OSSL_CMP_validate_msg, ptr noundef @.str, i32 noundef 642, ptr noundef @.str.1, ptr noundef @.str.2, ptr noundef @.str.10)
  store i32 1, ptr %3, align 4
  store i32 1, ptr %7, align 4
  br label %147

129:                                              ; preds = %121
  br label %145

130:                                              ; preds = %102
  %131 = load ptr, ptr %4, align 8, !tbaa !3
  %132 = load ptr, ptr %5, align 8, !tbaa !36
  %133 = load ptr, ptr %6, align 8, !tbaa !10
  %134 = call i32 @verify_signature(ptr noundef %131, ptr noundef %132, ptr noundef %133)
  %135 = icmp ne i32 %134, 0
  br i1 %135, label %136, label %142

136:                                              ; preds = %130
  %137 = load ptr, ptr %4, align 8, !tbaa !3
  %138 = call i32 (i32, ptr, ptr, ptr, i32, ptr, ptr, ...) @ossl_cmp_print_log(i32 noundef 7, ptr noundef %137, ptr noundef @__func__.OSSL_CMP_validate_msg, ptr noundef @.str, i32 noundef 649, ptr noundef @.str.1, ptr noundef @.str.2, ptr noundef @.str.11)
  %139 = load ptr, ptr %4, align 8, !tbaa !3
  %140 = load ptr, ptr %6, align 8, !tbaa !10
  %141 = call i32 @ossl_cmp_ctx_set1_validatedSrvCert(ptr noundef %139, ptr noundef %140)
  store i32 %141, ptr %3, align 4
  store i32 1, ptr %7, align 4
  br label %147

142:                                              ; preds = %130
  %143 = load ptr, ptr %4, align 8, !tbaa !3
  %144 = call i32 (i32, ptr, ptr, ptr, i32, ptr, ptr, ...) @ossl_cmp_print_log(i32 noundef 4, ptr noundef %143, ptr noundef @__func__.OSSL_CMP_validate_msg, ptr noundef @.str, i32 noundef 652, ptr noundef @.str.7, ptr noundef @.str.2, ptr noundef @.str.12)
  call void @ERR_new()
  call void @ERR_set_debug(ptr noundef @.str, i32 noundef 653, ptr noundef @__func__.OSSL_CMP_validate_msg)
  call void (i32, i32, ptr, ...) @ERR_set_error(i32 noundef 58, i32 noundef 151, ptr noundef null)
  br label %145

145:                                              ; preds = %142, %129
  br label %146

146:                                              ; preds = %145, %101, %98
  store i32 0, ptr %3, align 4
  store i32 1, ptr %7, align 4
  br label %147

147:                                              ; preds = %146, %136, %126, %118, %95, %90, %68, %57, %46, %26
  call void @llvm.lifetime.end.p0(i64 8, ptr %6) #5
  %148 = load i32, ptr %3, align 4
  ret i32 %148
}