; Function Attrs: nounwind uwtable
define i32 @OSSL_CMP_validate_msg(ptr noundef %0, ptr noundef %1) local_unnamed_addr #0 {
  %3 = tail call i32 (i32, ptr, ptr, ptr, i32, ptr, ptr, ...) @ossl_cmp_print_log(i32 noundef 7, ptr noundef %0, ptr noundef nonnull @__func__.OSSL_CMP_validate_msg, ptr noundef nonnull @.str, i32 noundef 567, ptr noundef nonnull @.str.1, ptr noundef nonnull @.str.2, ptr noundef nonnull @.str.3) #3
  %4 = icmp eq ptr %0, null
  %5 = icmp eq ptr %1, null
  %or.cond = or i1 %4, %5
  br i1 %or.cond, label %13, label %6

6:                                                ; preds = %2
  %7 = load ptr, ptr %1, align 8, !tbaa !28
  %8 = icmp eq ptr %7, null
  br i1 %8, label %13, label %9

9:                                                ; preds = %6
  %10 = getelementptr inbounds nuw i8, ptr %1, i64 8
  %11 = load ptr, ptr %10, align 8, !tbaa !32
  %12 = icmp eq ptr %11, null
  br i1 %12, label %13, label %14

13:                                               ; preds = %9, %6, %2
  tail call void @ERR_new() #3
  tail call void @ERR_set_debug(ptr noundef nonnull @.str, i32 noundef 570, ptr noundef nonnull @__func__.OSSL_CMP_validate_msg) #3
  tail call void (i32, i32, ptr, ...) @ERR_set_error(i32 noundef 58, i32 noundef 103, ptr noundef null) #3
  br label %77

14:                                               ; preds = %9
  %15 = getelementptr inbounds nuw i8, ptr %7, i64 32
  %16 = load ptr, ptr %15, align 8, !tbaa !33
  %17 = icmp eq ptr %16, null
  br i1 %17, label %26, label %18

18:                                               ; preds = %14
  %19 = getelementptr inbounds nuw i8, ptr %1, i64 16
  %20 = load ptr, ptr %19, align 8, !tbaa !37
  %21 = icmp eq ptr %20, null
  br i1 %21, label %26, label %22

22:                                               ; preds = %18
  %23 = getelementptr inbounds nuw i8, ptr %20, i64 8
  %24 = load ptr, ptr %23, align 8, !tbaa !38
  %25 = icmp eq ptr %24, null
  br i1 %25, label %26, label %27

26:                                               ; preds = %22, %18, %14
  tail call void @ERR_new() #3
  tail call void @ERR_set_debug(ptr noundef nonnull @.str, i32 noundef 576, ptr noundef nonnull @__func__.OSSL_CMP_validate_msg) #3
  tail call void (i32, i32, ptr, ...) @ERR_set_error(i32 noundef 58, i32 noundef 143, ptr noundef null) #3
  br label %77

27:                                               ; preds = %22
  %28 = tail call i32 @ossl_cmp_hdr_get_protection_nid(ptr noundef nonnull %7) #3
  switch i32 %28, label %53 [
    i32 782, label %29
    i32 783, label %52
  ]

29:                                               ; preds = %27
  %30 = getelementptr inbounds nuw i8, ptr %0, i64 232
  %31 = load ptr, ptr %30, align 8, !tbaa !40
  %32 = icmp eq ptr %31, null
  br i1 %32, label %33, label %35

33:                                               ; preds = %29
  %34 = tail call i32 (i32, ptr, ptr, ptr, i32, ptr, ptr, ...) @ossl_cmp_print_log(i32 noundef 6, ptr noundef nonnull %0, ptr noundef nonnull @__func__.OSSL_CMP_validate_msg, ptr noundef nonnull @.str, i32 noundef 584, ptr noundef nonnull @.str.4, ptr noundef nonnull @.str.2, ptr noundef nonnull @.str.5) #3
  tail call void @ERR_new() #3
  tail call void @ERR_set_debug(ptr noundef nonnull @.str, i32 noundef 585, ptr noundef nonnull @__func__.OSSL_CMP_validate_msg) #3
  tail call void (i32, i32, ptr, ...) @ERR_set_error(i32 noundef 58, i32 noundef 178, ptr noundef null) #3
  br label %77

35:                                               ; preds = %29
  %36 = tail call fastcc i32 @verify_PBMAC(ptr noundef %0, ptr noundef %1)
  %.not = icmp eq i32 %36, 0
  br i1 %.not, label %50, label %37

37:                                               ; preds = %35
  %38 = tail call i32 @OSSL_CMP_MSG_get_bodytype(ptr noundef nonnull %1) #3
  switch i32 %38, label %48 [
    i32 -1, label %77
    i32 1, label %39
    i32 3, label %39
    i32 8, label %39
    i32 14, label %39
  ]

39:                                               ; preds = %37, %37, %37, %37
  %40 = getelementptr inbounds nuw i8, ptr %0, i64 168
  %41 = load ptr, ptr %40, align 8, !tbaa !41
  %.not44 = icmp eq ptr %41, null
  br i1 %.not44, label %48, label %42

42:                                               ; preds = %39
  %43 = load ptr, ptr %10, align 8, !tbaa !32
  %44 = getelementptr inbounds nuw i8, ptr %43, i64 8
  %45 = load ptr, ptr %44, align 8, !tbaa !42
  %46 = load ptr, ptr %45, align 8, !tbaa !43
  %47 = tail call i32 @ossl_cmp_X509_STORE_add1_certs(ptr noundef nonnull %41, ptr noundef %46, i32 noundef 0) #3
  %.not45.not = icmp eq i32 %47, 0
  br i1 %.not45.not, label %77, label %48

48:                                               ; preds = %37, %39, %42
  %49 = tail call i32 (i32, ptr, ptr, ptr, i32, ptr, ptr, ...) @ossl_cmp_print_log(i32 noundef 7, ptr noundef nonnull %0, ptr noundef nonnull @__func__.OSSL_CMP_validate_msg, ptr noundef nonnull @.str, i32 noundef 615, ptr noundef nonnull @.str.1, ptr noundef nonnull @.str.2, ptr noundef nonnull @.str.6) #3
  br label %77

50:                                               ; preds = %35
  %51 = tail call i32 (i32, ptr, ptr, ptr, i32, ptr, ptr, ...) @ossl_cmp_print_log(i32 noundef 4, ptr noundef nonnull %0, ptr noundef nonnull @__func__.OSSL_CMP_validate_msg, ptr noundef nonnull @.str, i32 noundef 618, ptr noundef nonnull @.str.7, ptr noundef nonnull @.str.2, ptr noundef nonnull @.str.8) #3
  br label %77

52:                                               ; preds = %27
  tail call void @ERR_new() #3
  tail call void @ERR_set_debug(ptr noundef nonnull @.str, i32 noundef 626, ptr noundef nonnull @__func__.OSSL_CMP_validate_msg) #3
  tail call void (i32, i32, ptr, ...) @ERR_set_error(i32 noundef 58, i32 noundef 154, ptr noundef null) #3
  br label %77

53:                                               ; preds = %27
  %54 = getelementptr inbounds nuw i8, ptr %0, i64 144
  %55 = load ptr, ptr %54, align 8, !tbaa !46
  %56 = icmp eq ptr %55, null
  br i1 %56, label %57, label %70

57:                                               ; preds = %53
  %58 = getelementptr inbounds nuw i8, ptr %0, i64 168
  %59 = load ptr, ptr %58, align 8, !tbaa !41
  %60 = icmp eq ptr %59, null
  br i1 %60, label %61, label %66

61:                                               ; preds = %57
  %62 = getelementptr inbounds nuw i8, ptr %0, i64 232
  %63 = load ptr, ptr %62, align 8, !tbaa !40
  %.not47 = icmp eq ptr %63, null
  br i1 %.not47, label %66, label %64

64:                                               ; preds = %61
  %65 = tail call i32 (i32, ptr, ptr, ptr, i32, ptr, ptr, ...) @ossl_cmp_print_log(i32 noundef 6, ptr noundef nonnull %0, ptr noundef nonnull @__func__.OSSL_CMP_validate_msg, ptr noundef nonnull @.str, i32 noundef 636, ptr noundef nonnull @.str.4, ptr noundef nonnull @.str.2, ptr noundef nonnull @.str.9) #3
  tail call void @ERR_new() #3
  tail call void @ERR_set_debug(ptr noundef nonnull @.str, i32 noundef 637, ptr noundef nonnull @__func__.OSSL_CMP_validate_msg) #3
  tail call void (i32, i32, ptr, ...) @ERR_set_error(i32 noundef 58, i32 noundef 179, ptr noundef null) #3
  br label %77

66:                                               ; preds = %61, %57
  %67 = tail call fastcc i32 @check_msg_find_cert(ptr noundef %0, ptr noundef %1)
  %.not48 = icmp eq i32 %67, 0
  br i1 %.not48, label %77, label %68

68:                                               ; preds = %66
  %69 = tail call i32 (i32, ptr, ptr, ptr, i32, ptr, ptr, ...) @ossl_cmp_print_log(i32 noundef 7, ptr noundef nonnull %0, ptr noundef nonnull @__func__.OSSL_CMP_validate_msg, ptr noundef nonnull @.str, i32 noundef 642, ptr noundef nonnull @.str.1, ptr noundef nonnull @.str.2, ptr noundef nonnull @.str.10) #3
  br label %77

70:                                               ; preds = %53
  %71 = tail call fastcc i32 @verify_signature(ptr noundef %0, ptr noundef %1, ptr noundef %55)
  %.not46 = icmp eq i32 %71, 0
  br i1 %.not46, label %75, label %72

72:                                               ; preds = %70
  %73 = tail call i32 (i32, ptr, ptr, ptr, i32, ptr, ptr, ...) @ossl_cmp_print_log(i32 noundef 7, ptr noundef nonnull %0, ptr noundef nonnull @__func__.OSSL_CMP_validate_msg, ptr noundef nonnull @.str, i32 noundef 649, ptr noundef nonnull @.str.1, ptr noundef nonnull @.str.2, ptr noundef nonnull @.str.11) #3
  %74 = tail call i32 @ossl_cmp_ctx_set1_validatedSrvCert(ptr noundef nonnull %0, ptr noundef nonnull %55) #3
  br label %77

75:                                               ; preds = %70
  %76 = tail call i32 (i32, ptr, ptr, ptr, i32, ptr, ptr, ...) @ossl_cmp_print_log(i32 noundef 4, ptr noundef nonnull %0, ptr noundef nonnull @__func__.OSSL_CMP_validate_msg, ptr noundef nonnull @.str, i32 noundef 652, ptr noundef nonnull @.str.7, ptr noundef nonnull @.str.2, ptr noundef nonnull @.str.12) #3
  tail call void @ERR_new() #3
  tail call void @ERR_set_debug(ptr noundef nonnull @.str, i32 noundef 653, ptr noundef nonnull @__func__.OSSL_CMP_validate_msg) #3
  tail call void (i32, i32, ptr, ...) @ERR_set_error(i32 noundef 58, i32 noundef 151, ptr noundef null) #3
  br label %77

77:                                               ; preds = %50, %52, %66, %75, %37, %42, %72, %68, %64, %48, %33, %26, %13
  %.0 = phi i32 [ 0, %13 ], [ 0, %26 ], [ 0, %64 ], [ 1, %68 ], [ %74, %72 ], [ 0, %33 ], [ 1, %48 ], [ 0, %42 ], [ 0, %37 ], [ 0, %75 ], [ 0, %66 ], [ 0, %52 ], [ 0, %50 ]
  ret i32 %.0
}